target datalayout = "e-m:e-p270:32:32-p271:32:32-p272:64:64-i64:64-i128:128-f80:128-n8:16:32:64-S128"
target triple = "x86_64-pc-linux-gnu"

%"class.smt::arith_value" = type { ptr, ptr, %class.arith_util, %class.bv_util, ptr, ptr, ptr, ptr }
%class.arith_util = type { ptr, ptr }
%class.bv_util = type { %class.bv_recognizers, ptr, ptr }
%class.bv_recognizers = type { i32 }

; Function Attrs: mustprogress uwtable
define hidden void @_ZN3smt11arith_valueC2ER11ast_manager(ptr noundef nonnull align 8 dereferenceable(88) %0, ptr noundef nonnull align 8 dereferenceable(976) %1) unnamed_addr #6 align 2 {
  %3 = alloca ptr, align 8
  %4 = alloca ptr, align 8
  store ptr %0, ptr %3, align 8, !tbaa !28
  store ptr %1, ptr %4, align 8, !tbaa !30
  %5 = load ptr, ptr %3, align 8
  %6 = getelementptr inbounds nuw %"class.smt::arith_value", ptr %5, i32 0, i32 0
  store ptr null, ptr %6, align 8, !tbaa !32
  %7 = getelementptr inbounds nuw %"class.smt::arith_value", ptr %5, i32 0, i32 1
  %8 = load ptr, ptr %4, align 8, !tbaa !30
  store ptr %8, ptr %7, align 8, !tbaa !30
  %9 = getelementptr inbounds nuw %"class.smt::arith_value", ptr %5, i32 0, i32 2
  %10 = load ptr, ptr %4, align 8, !tbaa !30
  call void @_ZN10arith_utilC1ER11ast_manager(ptr noundef nonnull align 8 dereferenceable(16) %9, ptr noundef nonnull align 8 dereferenceable(976) %10)
  %11 = getelementptr inbounds nuw %"class.smt::arith_value", ptr %5, i32 0, i32 3
  %12 = load ptr, ptr %4, align 8, !tbaa !30
  call void @_ZN7bv_utilC1ER11ast_manager(ptr noundef nonnull align 8 dereferenceable(24) %11, ptr noundef nonnull align 8 dereferenceable(976) %12)
  ret void
}